target datalayout = "e-m:e-p270:32:32-p271:32:32-p272:64:64-i64:64-i128:128-f80:128-n8:16:32:64-S128"
target triple = "x86_64-pc-linux-gnu"

@hf_zbee_zcl_pwr_prof_pwr_prof_id = internal global i32 0, align 4
@hf_zbee_zcl_pwr_prof_num_of_sched_phases = internal global i32 0, align 4
@hf_zbee_zcl_pwr_prof_energy_phase_id = internal global i32 0, align 4
@hf_zbee_zcl_pwr_prof_scheduled_time = internal global i32 0, align 4
@ett_zbee_zcl_pwr_prof_enphases = internal global [16 x i32] zeroinitializer, align 16
@.str.1592 = private unnamed_addr constant [17 x i8] c"Energy Phase #%u\00", align 1

; Function Attrs: null_pointer_is_valid sspstrong uwtable
define internal void @dissect_zcl_sched_energy_phase(ptr noundef %0, ptr noundef %1, ptr noundef %2) #0 {
  %4 = alloca ptr, align 8
  %5 = alloca ptr, align 8
  %6 = alloca ptr, align 8
  store ptr %0, ptr %4, align 8
  store ptr %1, ptr %5, align 8
  store ptr %2, ptr %6, align 8
  %7 = load ptr, ptr %5, align 8
  %8 = load i32, ptr @hf_zbee_zcl_pwr_prof_energy_phase_id, align 4
  %9 = load ptr, ptr %4, align 8
  %10 = load ptr, ptr %6, align 8
  %11 = load i32, ptr %10, align 4
  %12 = call ptr @proto_tree_add_item(ptr noundef %7, i32 noundef %8, ptr noundef %9, i32 noundef %11, i32 noundef 1, i32 noundef 0)
  %13 = load ptr, ptr %6, align 8
  %14 = load i32, ptr %13, align 4
  %15 = add i32 %14, 1
  store i32 %15, ptr %13, align 4
  %16 = load ptr, ptr %5, align 8
  %17 = load i32, ptr @hf_zbee_zcl_pwr_prof_scheduled_time, align 4
  %18 = load ptr, ptr %4, align 8
  %19 = load ptr, ptr %6, align 8
  %20 = load i32, ptr %19, align 4
  %21 = call ptr @proto_tree_add_item(ptr noundef %16, i32 noundef %17, ptr noundef %18, i32 noundef %20, i32 noundef 2, i32 noundef -2147483648)
  %22 = load ptr, ptr %6, align 8
  %23 = load i32, ptr %22, align 4
  %24 = add i32 %23, 2
  store i32 %24, ptr %22, align 4
  ret void
}

; Function Attrs: null_pointer_is_valid sspstrong uwtable
define internal void @dissect_zcl_pwr_prof_enphsschednotif(ptr noundef %0, ptr noundef %1, ptr noundef %2) #0 {
  %4 = alloca ptr, align 8
  %5 = alloca ptr, align 8
  %6 = alloca ptr, align 8
  %7 = alloca ptr, align 8
  %8 = alloca i32, align 4
  %9 = alloca i8, align 1
  store ptr %0, ptr %4, align 8
  store ptr %1, ptr %5, align 8
  store ptr %2, ptr %6, align 8
  call void @llvm.lifetime.start.p0(i64 8, ptr %7) #7
  store ptr null, ptr %7, align 8
  call void @llvm.lifetime.start.p0(i64 4, ptr %8) #7
  call void @llvm.lifetime.start.p0(i64 1, ptr %9) #7
  %10 = load ptr, ptr %5, align 8
  %11 = load i32, ptr @hf_zbee_zcl_pwr_prof_pwr_prof_id, align 4
  %12 = load ptr, ptr %4, align 8
  %13 = load ptr, ptr %6, align 8
  %14 = load i32, ptr %13, align 4
  %15 = call ptr @proto_tree_add_item(ptr noundef %10, i32 noundef %11, ptr noundef %12, i32 noundef %14, i32 noundef 1, i32 noundef 0)
  %16 = load ptr, ptr %6, align 8
  %17 = load i32, ptr %16, align 4
  %18 = add i32 %17, 1
  store i32 %18, ptr %16, align 4
  %19 = load ptr, ptr %4, align 8
  %20 = load ptr, ptr %6, align 8
  %21 = load i32, ptr %20, align 4
  %22 = call zeroext i8 @tvb_get_uint8(ptr noundef %19, i32 noundef %21)
  store i8 %22, ptr %9, align 1
  %23 = load ptr, ptr %5, align 8
  %24 = load i32, ptr @hf_zbee_zcl_pwr_prof_num_of_sched_phases, align 4
  %25 = load ptr, ptr %4, align 8
  %26 = load ptr, ptr %6, align 8
  %27 = load i32, ptr %26, align 4
  %28 = call ptr @proto_tree_add_item(ptr noundef %23, i32 noundef %24, ptr noundef %25, i32 noundef %27, i32 noundef 1, i32 noundef 0)
  %29 = load ptr, ptr %6, align 8
  %30 = load i32, ptr %29, align 4
  %31 = add i32 %30, 1
  store i32 %31, ptr %29, align 4
  store i32 0, ptr %8, align 4
  br label %32

32:                                               ; preds = %56, %3
  %33 = load i32, ptr %8, align 4
  %34 = load i8, ptr %9, align 1
  %35 = zext i8 %34 to i32
  %36 = icmp ult i32 %33, %35
  br i1 %36, label %37, label %40

37:                                               ; preds = %32
  %38 = load i32, ptr %8, align 4
  %39 = icmp ult i32 %38, 16
  br label %40

40:                                               ; preds = %37, %32
  %41 = phi i1 [ false, %32 ], [ %39, %37 ]
  br i1 %41, label %42, label %59

42:                                               ; preds = %40
  %43 = load ptr, ptr %5, align 8
  %44 = load ptr, ptr %4, align 8
  %45 = load ptr, ptr %6, align 8
  %46 = load i32, ptr %45, align 4
  %47 = load i32, ptr %8, align 4
  %48 = zext i32 %47 to i64
  %49 = getelementptr [16 x i32], ptr @ett_zbee_zcl_pwr_prof_enphases, i64 0, i64 %48
  %50 = load i32, ptr %49, align 4
  %51 = load i32, ptr %8, align 4
  %52 = call ptr (ptr, ptr, i32, i32, i32, ptr, ptr, ...) @proto_tree_add_subtree_format(ptr noundef %43, ptr noundef %44, i32 noundef %46, i32 noundef 1, i32 noundef %50, ptr noundef null, ptr noundef @.str.1592, i32 noundef %51)
  store ptr %52, ptr %7, align 8
  %53 = load ptr, ptr %4, align 8
  %54 = load ptr, ptr %7, align 8
  %55 = load ptr, ptr %6, align 8
  call void @dissect_zcl_sched_energy_phase(ptr noundef %53, ptr noundef %54, ptr noundef %55)
  br label %56

56:                                               ; preds = %42
  %57 = load i32, ptr %8, align 4
  %58 = add i32 %57, 1
  store i32 %58, ptr %8, align 4
  br label %32, !llvm.loop !31

59:                                               ; preds = %40
  call void @llvm.lifetime.end.p0(i64 1, ptr %9) #7
  call void @llvm.lifetime.end.p0(i64 4, ptr %8) #7
  call void @llvm.lifetime.end.p0(i64 8, ptr %7) #7
  ret void
}