; Function Attrs: null_pointer_is_valid sspstrong uwtable
define internal fastcc void @dissect_zcl_pwr_prof_enphsschednotif(ptr noundef %0, ptr noundef %1, ptr noundef captures(none) %2) unnamed_addr #0 {
  %4 = load i32, ptr @hf_zbee_zcl_pwr_prof_pwr_prof_id, align 4
  %5 = load i32, ptr %2, align 4
  %6 = tail call ptr @proto_tree_add_item(ptr noundef %1, i32 noundef %4, ptr noundef %0, i32 noundef %5, i32 noundef 1, i32 noundef 0)
  %7 = load i32, ptr %2, align 4
  %8 = add i32 %7, 1
  store i32 %8, ptr %2, align 4
  %9 = tail call zeroext i8 @tvb_get_uint8(ptr noundef %0, i32 noundef %8)
  %10 = load i32, ptr @hf_zbee_zcl_pwr_prof_num_of_sched_phases, align 4
  %11 = load i32, ptr %2, align 4
  %12 = tail call ptr @proto_tree_add_item(ptr noundef %1, i32 noundef %10, ptr noundef %0, i32 noundef %11, i32 noundef 1, i32 noundef 0)
  %13 = load i32, ptr %2, align 4
  %14 = add i32 %13, 1
  store i32 %14, ptr %2, align 4
  %.not = icmp eq i8 %9, 0
  br i1 %.not, label %._crit_edge, label %.lr.ph.preheader

.lr.ph.preheader:                                 ; preds = %3
  %15 = tail call i8 @llvm.umin.i8(i8 %9, i8 16)
  %wide.trip.count = zext nneg i8 %15 to i64
  br label %.lr.ph

.lr.ph:                                           ; preds = %.lr.ph.preheader, %.lr.ph
  %16 = phi i32 [ %14, %.lr.ph.preheader ], [ %29, %.lr.ph ]
  %indvars.iv = phi i64 [ 0, %.lr.ph.preheader ], [ %indvars.iv.next, %.lr.ph ]
  %17 = getelementptr [16 x i32], ptr @ett_zbee_zcl_pwr_prof_enphases, i64 0, i64 %indvars.iv
  %18 = load i32, ptr %17, align 4
  %19 = trunc nuw nsw i64 %indvars.iv to i32
  %20 = tail call ptr (ptr, ptr, i32, i32, i32, ptr, ptr, ...) @proto_tree_add_subtree_format(ptr noundef %1, ptr noundef %0, i32 noundef %16, i32 noundef 1, i32 noundef %18, ptr noundef null, ptr noundef nonnull @.str.1592, i32 noundef %19)
  %21 = load i32, ptr @hf_zbee_zcl_pwr_prof_energy_phase_id, align 4
  %22 = load i32, ptr %2, align 4
  %23 = tail call ptr @proto_tree_add_item(ptr noundef %20, i32 noundef %21, ptr noundef %0, i32 noundef %22, i32 noundef 1, i32 noundef 0)
  %24 = load i32, ptr %2, align 4
  %25 = add i32 %24, 1
  store i32 %25, ptr %2, align 4
  %26 = load i32, ptr @hf_zbee_zcl_pwr_prof_scheduled_time, align 4
  %27 = tail call ptr @proto_tree_add_item(ptr noundef %20, i32 noundef %26, ptr noundef %0, i32 noundef %25, i32 noundef 2, i32 noundef -2147483648)
  %28 = load i32, ptr %2, align 4
  %29 = add i32 %28, 2
  store i32 %29, ptr %2, align 4
  %indvars.iv.next = add nuw nsw i64 %indvars.iv, 1
  %exitcond.not = icmp eq i64 %indvars.iv.next, %wide.trip.count
  br i1 %exitcond.not, label %._crit_edge, label %.lr.ph, !llvm.loop !34

._crit_edge:                                      ; preds = %.lr.ph, %3
  ret void
}